target datalayout = "e-m:e-p270:32:32-p271:32:32-p272:64:64-i64:64-i128:128-f80:128-n8:16:32:64-S128"
target triple = "x86_64-pc-linux-gnu"

%struct.ident_t = type { i32, i32, i32, i32, ptr }
%"struct.std::_Vector_base" = type { %"struct.std::_Vector_base<float, std::allocator<float>>::_Vector_impl" }
%"struct.std::_Vector_base<float, std::allocator<float>>::_Vector_impl" = type { %"struct.std::_Vector_base<float, std::allocator<float>>::_Vector_impl_data" }
%"struct.std::_Vector_base<float, std::allocator<float>>::_Vector_impl_data" = type { ptr, ptr, ptr }

@1 = private unnamed_addr constant %struct.ident_t { i32 0, i32 514, i32 0, i32 22, ptr @0 }, align 8

; Function Attrs: mustprogress nounwind uwtable
define linkonce_odr noundef nonnull align 4 dereferenceable(4) ptr @_ZNSt6vectorIfSaIfEEixEm(ptr noundef nonnull align 8 dereferenceable(24) %0, i64 noundef %1) #3 comdat align 2 {
  %3 = alloca ptr, align 8
  %4 = alloca i64, align 8
  store ptr %0, ptr %3, align 8, !tbaa !58
  store i64 %1, ptr %4, align 8, !tbaa !9
  %5 = load ptr, ptr %3, align 8
  %6 = getelementptr inbounds nuw %"struct.std::_Vector_base", ptr %5, i32 0, i32 0
  %7 = getelementptr inbounds nuw %"struct.std::_Vector_base<float, std::allocator<float>>::_Vector_impl_data", ptr %6, i32 0, i32 0
  %8 = load ptr, ptr %7, align 8, !tbaa !62
  %9 = load i64, ptr %4, align 8, !tbaa !9
  %10 = getelementptr inbounds nuw float, ptr %8, i64 %9
  ret ptr %10
}

; Function Attrs: noinline norecurse nounwind uwtable
define internal void @_ZN5faiss19rand_smooth_vectorsEmmPfl.omp_outlined(ptr noalias noundef %0, ptr noalias noundef %1, ptr noundef nonnull align 8 dereferenceable(8) %2, ptr noundef nonnull align 8 dereferenceable(8) %3, ptr noundef nonnull align 8 dereferenceable(8) %4, ptr noundef nonnull align 8 dereferenceable(24) %5) #11 {
  %7 = alloca ptr, align 8
  %8 = alloca ptr, align 8
  %9 = alloca ptr, align 8
  %10 = alloca ptr, align 8
  %11 = alloca ptr, align 8
  %12 = alloca ptr, align 8
  %13 = alloca i64, align 8
  %14 = alloca i64, align 8
  %15 = alloca i64, align 8
  %16 = alloca i64, align 8
  %17 = alloca i64, align 8
  %18 = alloca i64, align 8
  %19 = alloca i64, align 8
  %20 = alloca i32, align 4
  %21 = alloca i64, align 8
  %22 = alloca i64, align 8
  store ptr %0, ptr %7, align 8, !tbaa !27
  store ptr %1, ptr %8, align 8, !tbaa !27
  store ptr %2, ptr %9, align 8, !tbaa !29
  store ptr %3, ptr %10, align 8, !tbaa !29
  store ptr %4, ptr %11, align 8, !tbaa !31
  store ptr %5, ptr %12, align 8, !tbaa !58
  %23 = load ptr, ptr %9, align 8, !tbaa !29
  %24 = load ptr, ptr %10, align 8, !tbaa !29
  %25 = load ptr, ptr %11, align 8, !tbaa !31
  %26 = load ptr, ptr %12, align 8, !tbaa !58
  call void @llvm.lifetime.start.p0(i64 8, ptr %13) #5
  call void @llvm.lifetime.start.p0(i64 8, ptr %14) #5
  %27 = load i64, ptr %23, align 8, !tbaa !9
  store i64 %27, ptr %14, align 8, !tbaa !9
  call void @llvm.lifetime.start.p0(i64 8, ptr %15) #5
  %28 = load i64, ptr %14, align 8, !tbaa !9
  %29 = sub i64 %28, 0
  %30 = udiv i64 %29, 1
  %31 = sub i64 %30, 1
  store i64 %31, ptr %15, align 8, !tbaa !9
  call void @llvm.lifetime.start.p0(i64 8, ptr %16) #5
  store i64 0, ptr %16, align 8, !tbaa !9
  call void @llvm.lifetime.end.p0(i64 8, ptr %16) #5
  %32 = load i64, ptr %14, align 8, !tbaa !9
  %33 = icmp ult i64 0, %32
  br i1 %33, label %34, label %101

34:                                               ; preds = %6
  call void @llvm.lifetime.start.p0(i64 8, ptr %17) #5
  store i64 0, ptr %17, align 8, !tbaa !9
  call void @llvm.lifetime.start.p0(i64 8, ptr %18) #5
  %35 = load i64, ptr %15, align 8, !tbaa !9
  store i64 %35, ptr %18, align 8, !tbaa !9
  call void @llvm.lifetime.start.p0(i64 8, ptr %19) #5
  store i64 1, ptr %19, align 8, !tbaa !9
  call void @llvm.lifetime.start.p0(i64 4, ptr %20) #5
  store i32 0, ptr %20, align 4, !tbaa !19
  call void @llvm.lifetime.start.p0(i64 8, ptr %21) #5
  %36 = load ptr, ptr %7, align 8
  %37 = load i32, ptr %36, align 4, !tbaa !19
  call void @__kmpc_for_static_init_8u(ptr @1, i32 %37, i32 34, ptr %20, ptr %17, ptr %18, ptr %19, i64 1, i64 1)
  %38 = load i64, ptr %18, align 8, !tbaa !9
  %39 = load i64, ptr %15, align 8, !tbaa !9
  %40 = icmp ugt i64 %38, %39
  br i1 %40, label %41, label %43

41:                                               ; preds = %34
  %42 = load i64, ptr %15, align 8, !tbaa !9
  br label %45

43:                                               ; preds = %34
  %44 = load i64, ptr %18, align 8, !tbaa !9
  br label %45

45:                                               ; preds = %43, %41
  %46 = phi i64 [ %42, %41 ], [ %44, %43 ]
  store i64 %46, ptr %18, align 8, !tbaa !9
  %47 = load i64, ptr %17, align 8, !tbaa !9
  store i64 %47, ptr %13, align 8, !tbaa !9
  br label %48

48:                                               ; preds = %94, %45
  %49 = load i64, ptr %13, align 8, !tbaa !9
  %50 = load i64, ptr %18, align 8, !tbaa !9
  %51 = add i64 %50, 1
  %52 = icmp ult i64 %49, %51
  br i1 %52, label %54, label %53

53:                                               ; preds = %48
  br label %97

54:                                               ; preds = %48
  %55 = load i64, ptr %13, align 8, !tbaa !9
  %56 = mul i64 %55, 1
  %57 = add i64 0, %56
  store i64 %57, ptr %21, align 8, !tbaa !9
  call void @llvm.lifetime.start.p0(i64 8, ptr %22) #5
  store i64 0, ptr %22, align 8, !tbaa !9
  br label %58

58:                                               ; preds = %89, %54
  %59 = load i64, ptr %22, align 8, !tbaa !9
  %60 = load i64, ptr %24, align 8, !tbaa !9
  %61 = icmp ult i64 %59, %60
  br i1 %61, label %63, label %62

62:                                               ; preds = %58
  call void @llvm.lifetime.end.p0(i64 8, ptr %22) #5
  br label %92

63:                                               ; preds = %58
  %64 = load ptr, ptr %25, align 8, !tbaa !25
  %65 = load i64, ptr %21, align 8, !tbaa !9
  %66 = load i64, ptr %24, align 8, !tbaa !9
  %67 = mul i64 %65, %66
  %68 = load i64, ptr %22, align 8, !tbaa !9
  %69 = add i64 %67, %68
  %70 = getelementptr inbounds nuw float, ptr %64, i64 %69
  %71 = load float, ptr %70, align 4, !tbaa !33
  %72 = fpext float %71 to double
  %73 = load i64, ptr %22, align 8, !tbaa !9
  %74 = call noundef nonnull align 4 dereferenceable(4) ptr @_ZNSt6vectorIfSaIfEEixEm(ptr noundef nonnull align 8 dereferenceable(24) %26, i64 noundef %73) #5
  %75 = load float, ptr %74, align 4, !tbaa !33
  %76 = fmul float %75, 4.000000e+00
  %77 = fpext float %76 to double
  %78 = fadd double %77, 1.000000e-01
  %79 = fmul double %72, %78
  %80 = fptrunc double %79 to float
  %81 = call float @sinf(float noundef %80) #5, !tbaa !19
  %82 = load ptr, ptr %25, align 8, !tbaa !25
  %83 = load i64, ptr %21, align 8, !tbaa !9
  %84 = load i64, ptr %24, align 8, !tbaa !9
  %85 = mul i64 %83, %84
  %86 = load i64, ptr %22, align 8, !tbaa !9
  %87 = add i64 %85, %86
  %88 = getelementptr inbounds nuw float, ptr %82, i64 %87
  store float %81, ptr %88, align 4, !tbaa !33
  br label %89

89:                                               ; preds = %63
  %90 = load i64, ptr %22, align 8, !tbaa !9
  %91 = add i64 %90, 1
  store i64 %91, ptr %22, align 8, !tbaa !9
  br label %58, !llvm.loop !65

92:                                               ; preds = %62
  br label %93

93:                                               ; preds = %92
  br label %94

94:                                               ; preds = %93
  %95 = load i64, ptr %13, align 8, !tbaa !9
  %96 = add i64 %95, 1
  store i64 %96, ptr %13, align 8, !tbaa !9
  br label %48

97:                                               ; preds = %53
  br label %98

98:                                               ; preds = %97
  %99 = load ptr, ptr %7, align 8
  %100 = load i32, ptr %99, align 4, !tbaa !19
  call void @__kmpc_for_static_fini(ptr @1, i32 %100)
  call void @llvm.lifetime.end.p0(i64 8, ptr %21) #5
  call void @llvm.lifetime.end.p0(i64 4, ptr %20) #5
  call void @llvm.lifetime.end.p0(i64 8, ptr %19) #5
  call void @llvm.lifetime.end.p0(i64 8, ptr %18) #5
  call void @llvm.lifetime.end.p0(i64 8, ptr %17) #5
  br label %101

101:                                              ; preds = %98, %6
  call void @llvm.lifetime.end.p0(i64 8, ptr %15) #5
  call void @llvm.lifetime.end.p0(i64 8, ptr %14) #5
  call void @llvm.lifetime.end.p0(i64 8, ptr %13) #5
  ret void
}