; Function Attrs: noinline norecurse nounwind uwtable
define internal void @_ZN5faiss19rand_smooth_vectorsEmmPfl.omp_outlined(ptr noalias noundef readonly captures(none) %0, ptr noalias readnone captures(none) %1, ptr noundef nonnull readonly align 8 captures(none) dereferenceable(8) %2, ptr noundef nonnull readonly align 8 captures(none) dereferenceable(8) %3, ptr noundef nonnull readonly align 8 captures(none) dereferenceable(8) %4, ptr noundef nonnull readonly align 8 captures(none) dereferenceable(24) %5) #12 {
  %7 = alloca i64, align 8
  %8 = alloca i64, align 8
  %9 = alloca i64, align 8
  %10 = alloca i32, align 4
  %11 = load i64, ptr %2, align 8, !tbaa !4
  %.not = icmp eq i64 %11, 0
  br i1 %.not, label %37, label %12

12:                                               ; preds = %6
  %13 = add i64 %11, -1
  call void @llvm.lifetime.start.p0(i64 8, ptr nonnull %7) #6
  store i64 0, ptr %7, align 8, !tbaa !4
  call void @llvm.lifetime.start.p0(i64 8, ptr nonnull %8) #6
  store i64 %13, ptr %8, align 8, !tbaa !4
  call void @llvm.lifetime.start.p0(i64 8, ptr nonnull %9) #6
  store i64 1, ptr %9, align 8, !tbaa !4
  call void @llvm.lifetime.start.p0(i64 4, ptr nonnull %10) #6
  store i32 0, ptr %10, align 4, !tbaa !19
  %14 = load i32, ptr %0, align 4, !tbaa !19
  call void @__kmpc_for_static_init_8u(ptr nonnull @1, i32 %14, i32 34, ptr nonnull %10, ptr nonnull %7, ptr nonnull %8, ptr nonnull %9, i64 1, i64 1)
  %15 = load i64, ptr %8, align 8, !tbaa !4
  %16 = call i64 @llvm.umin.i64(i64 %15, i64 %13)
  store i64 %16, ptr %8, align 8, !tbaa !4
  %17 = load i64, ptr %7, align 8, !tbaa !4
  %.not28 = icmp ugt i64 %17, %16
  br i1 %.not28, label %._crit_edge24, label %.preheader.lr.ph

.preheader.lr.ph:                                 ; preds = %12
  %18 = load i64, ptr %3, align 8, !tbaa !4
  %.not25 = icmp eq i64 %18, 0
  %19 = load ptr, ptr %4, align 8
  %20 = load ptr, ptr %5, align 8
  br i1 %.not25, label %._crit_edge24, label %.preheader.us

.preheader.us:                                    ; preds = %.preheader.lr.ph, %._crit_edge.us
  %.02023.us = phi i64 [ %36, %._crit_edge.us ], [ %17, %.preheader.lr.ph ]
  %21 = mul i64 %18, %.02023.us
  %22 = getelementptr float, ptr %19, i64 %21
  br label %23

23:                                               ; preds = %.preheader.us, %23
  %.022.us = phi i64 [ 0, %.preheader.us ], [ %35, %23 ]
  %24 = getelementptr float, ptr %22, i64 %.022.us
  %25 = load float, ptr %24, align 4, !tbaa !21
  %26 = fpext float %25 to double
  %27 = getelementptr inbounds nuw float, ptr %20, i64 %.022.us
  %28 = load float, ptr %27, align 4, !tbaa !21
  %29 = fmul float %28, 4.000000e+00
  %30 = fpext float %29 to double
  %31 = fadd double %30, 1.000000e-01
  %32 = fmul double %31, %26
  %33 = fptrunc double %32 to float
  %34 = call float @sinf(float noundef %33) #6, !tbaa !19
  store float %34, ptr %24, align 4, !tbaa !21
  %35 = add nuw i64 %.022.us, 1
  %exitcond.not = icmp eq i64 %35, %18
  br i1 %exitcond.not, label %._crit_edge.us, label %23, !llvm.loop !44

._crit_edge.us:                                   ; preds = %23
  %36 = add nuw i64 %.02023.us, 1
  %exitcond27.not = icmp eq i64 %.02023.us, %16
  br i1 %exitcond27.not, label %._crit_edge24, label %.preheader.us

._crit_edge24:                                    ; preds = %._crit_edge.us, %.preheader.lr.ph, %12
  call void @__kmpc_for_static_fini(ptr nonnull @1, i32 %14)
  call void @llvm.lifetime.end.p0(i64 4, ptr nonnull %10) #6
  call void @llvm.lifetime.end.p0(i64 8, ptr nonnull %9) #6
  call void @llvm.lifetime.end.p0(i64 8, ptr nonnull %8) #6
  call void @llvm.lifetime.end.p0(i64 8, ptr nonnull %7) #6
  br label %37

37:                                               ; preds = %._crit_edge24, %6
  ret void
}